target datalayout = "e-m:e-p270:32:32-p271:32:32-p272:64:64-i64:64-i128:128-f80:128-n8:16:32:64-S128"
target triple = "x86_64-unknown-linux-gnu"

; Function Attrs: mustprogress uwtable
define noundef zeroext i1 @_ZN8proxygen7RFC261611bodyImpliedERKNS_11HTTPHeadersE(ptr noundef nonnull align 8 dereferenceable(32) %headers) #0 {
entry:
  %headers.addr = alloca ptr, align 8
  store ptr %headers, ptr %headers.addr, align 8
  %0 = load ptr, ptr %headers.addr, align 8
  %call = call noundef zeroext i1 @_ZNK8proxygen11HTTPHeaders6existsENS_14HTTPHeaderCodeE(ptr noundef nonnull align 8 dereferenceable(32) %0, i8 noundef zeroext 62)
  br i1 %call, label %lor.end, label %lor.rhs

lor.rhs:                                          ; preds = %entry
  %1 = load ptr, ptr %headers.addr, align 8
  %call1 = call noundef zeroext i1 @_ZNK8proxygen11HTTPHeaders6existsENS_14HTTPHeaderCodeE(ptr noundef nonnull align 8 dereferenceable(32) %1, i8 noundef zeroext 29)
  br label %lor.end

lor.end:                                          ; preds = %lor.rhs, %entry
  %2 = phi i1 [ true, %entry ], [ %call1, %lor.rhs ]
  ret i1 %2
}