; Function Attrs: mustprogress uwtable
define noundef zeroext i1 @_ZN8proxygen7RFC261611bodyImpliedERKNS_11HTTPHeadersE(ptr noundef nonnull align 8 dereferenceable(32) %headers) local_unnamed_addr #2 {
entry:
  %call = tail call noundef zeroext i1 @_ZNK8proxygen11HTTPHeaders6existsENS_14HTTPHeaderCodeE(ptr noundef nonnull align 8 dereferenceable(32) %headers, i8 noundef zeroext 62)
  br i1 %call, label %lor.end, label %lor.rhs

lor.rhs:                                          ; preds = %entry
  %call1 = tail call noundef zeroext i1 @_ZNK8proxygen11HTTPHeaders6existsENS_14HTTPHeaderCodeE(ptr noundef nonnull align 8 dereferenceable(32) %headers, i8 noundef zeroext 29)
  br label %lor.end

lor.end:                                          ; preds = %lor.rhs, %entry
  %0 = phi i1 [ true, %entry ], [ %call1, %lor.rhs ]
  ret i1 %0
}